target datalayout = "e-m:e-p270:32:32-p271:32:32-p272:64:64-i64:64-i128:128-f80:128-n8:16:32:64-S128"
target triple = "x86_64-pc-linux-gnu"

%struct._psqlSettings = type { ptr, i32, ptr, i8, ptr, ptr, %struct.printQueryOpt, ptr, ptr, ptr, i8, i8, i32, i32, ptr, ptr, i8, [4 x ptr], i8, i32, ptr, i8, i32, ptr, ptr, i64, i64, i8, ptr, ptr, ptr, i8, i8, i8, i8, i8, i8, i8, i32, i32, i32, i32, i32, i32, i32, i32, ptr, ptr, ptr, i32, i8, i32 }
%struct.printQueryOpt = type { %struct.printTableOpt, ptr, ptr, ptr, i8, ptr, i32 }
%struct.printTableOpt = type { i32, i16, i32, i32, i16, i16, i32, i8, i8, i8, i8, i64, ptr, %struct.separator, %struct.separator, [2 x i8], i8, ptr, i32, i32, i32, i32, i32, i32 }
%struct.separator = type { ptr, i8 }
%struct.PQExpBufferData = type { ptr, i64, i64 }

@pset = external global %struct._psqlSettings, align 8
@.str.912 = private unnamed_addr constant [52 x i8] c"improper qualified name (too many dotted names): %s\00", align 1
@.str.913 = private unnamed_addr constant [47 x i8] c"You are currently not connected to a database.\00", align 1
@.str.914 = private unnamed_addr constant [50 x i8] c"cross-database references are not implemented: %s\00", align 1

; Function Attrs: nounwind uwtable
define internal zeroext i1 @validateSQLNamePattern(ptr noundef %0, ptr noundef %1, i1 noundef zeroext %2, i1 noundef zeroext %3, ptr noundef %4, ptr noundef %5, ptr noundef %6, ptr noundef %7, ptr noundef %8, i32 noundef %9) #0 {
  %11 = alloca i1, align 1
  %12 = alloca ptr, align 8
  %13 = alloca ptr, align 8
  %14 = alloca i8, align 1
  %15 = alloca i8, align 1
  %16 = alloca ptr, align 8
  %17 = alloca ptr, align 8
  %18 = alloca ptr, align 8
  %19 = alloca ptr, align 8
  %20 = alloca ptr, align 8
  %21 = alloca i32, align 4
  %22 = alloca %struct.PQExpBufferData, align 8
  %23 = alloca i32, align 4
  %24 = alloca i8, align 1
  %25 = alloca i32, align 4
  store ptr %0, ptr %12, align 8
  store ptr %1, ptr %13, align 8
  %26 = zext i1 %2 to i8
  store i8 %26, ptr %14, align 1
  %27 = zext i1 %3 to i8
  store i8 %27, ptr %15, align 1
  store ptr %4, ptr %16, align 8
  store ptr %5, ptr %17, align 8
  store ptr %6, ptr %18, align 8
  store ptr %7, ptr %19, align 8
  store ptr %8, ptr %20, align 8
  store i32 %9, ptr %21, align 4
  call void @llvm.lifetime.start.p0(i64 24, ptr %22) #8
  call void @llvm.lifetime.start.p0(i64 4, ptr %23) #8
  call void @llvm.lifetime.start.p0(i64 1, ptr %24) #8
  call void @initPQExpBuffer(ptr noundef %22)
  %28 = load ptr, ptr @pset, align 8
  %29 = load ptr, ptr %12, align 8
  %30 = load ptr, ptr %13, align 8
  %31 = load i8, ptr %14, align 1, !range !4, !noundef !5
  %32 = trunc i8 %31 to i1
  %33 = load i8, ptr %15, align 1, !range !4, !noundef !5
  %34 = trunc i8 %33 to i1
  %35 = load ptr, ptr %16, align 8
  %36 = load ptr, ptr %17, align 8
  %37 = load ptr, ptr %18, align 8
  %38 = load ptr, ptr %19, align 8
  %39 = call zeroext i1 @processSQLNamePattern(ptr noundef %28, ptr noundef %29, ptr noundef %30, i1 noundef zeroext %32, i1 noundef zeroext %34, ptr noundef %35, ptr noundef %36, ptr noundef %37, ptr noundef %38, ptr noundef %22, ptr noundef %23)
  %40 = zext i1 %39 to i8
  store i8 %40, ptr %24, align 1
  %41 = load ptr, ptr %20, align 8
  %42 = icmp ne ptr %41, null
  br i1 %42, label %43, label %48

43:                                               ; preds = %10
  %44 = load i8, ptr %24, align 1, !range !4, !noundef !5
  %45 = trunc i8 %44 to i1
  %46 = load ptr, ptr %20, align 8
  %47 = zext i1 %45 to i8
  store i8 %47, ptr %46, align 1
  br label %48

48:                                               ; preds = %43, %10
  %49 = load i32, ptr %23, align 4
  %50 = load i32, ptr %21, align 4
  %51 = icmp sge i32 %49, %50
  br i1 %51, label %52, label %54

52:                                               ; preds = %48
  %53 = load ptr, ptr %13, align 8
  call void (i32, i32, ptr, ...) @pg_log_generic(i32 noundef 4, i32 noundef 0, ptr noundef @.str.912, ptr noundef %53)
  br label %78

54:                                               ; preds = %48
  %55 = load i32, ptr %21, align 4
  %56 = icmp sgt i32 %55, 1
  br i1 %56, label %57, label %77

57:                                               ; preds = %54
  %58 = load i32, ptr %23, align 4
  %59 = load i32, ptr %21, align 4
  %60 = sub i32 %59, 1
  %61 = icmp eq i32 %58, %60
  br i1 %61, label %62, label %77

62:                                               ; preds = %57
  %63 = load ptr, ptr @pset, align 8
  %64 = call ptr @PQdb(ptr noundef %63)
  %65 = icmp eq ptr %64, null
  br i1 %65, label %66, label %67

66:                                               ; preds = %62
  call void (i32, i32, ptr, ...) @pg_log_generic(i32 noundef 4, i32 noundef 0, ptr noundef @.str.913)
  br label %78

67:                                               ; preds = %62
  %68 = load ptr, ptr @pset, align 8
  %69 = call ptr @PQdb(ptr noundef %68)
  %70 = getelementptr inbounds nuw %struct.PQExpBufferData, ptr %22, i32 0, i32 0
  %71 = load ptr, ptr %70, align 8
  %72 = call i32 @strcmp(ptr noundef %69, ptr noundef %71) #9
  %73 = icmp ne i32 %72, 0
  br i1 %73, label %74, label %76

74:                                               ; preds = %67
  %75 = load ptr, ptr %13, align 8
  call void (i32, i32, ptr, ...) @pg_log_generic(i32 noundef 4, i32 noundef 0, ptr noundef @.str.914, ptr noundef %75)
  br label %78

76:                                               ; preds = %67
  br label %77

77:                                               ; preds = %76, %57, %54
  call void @termPQExpBuffer(ptr noundef %22)
  store i1 true, ptr %11, align 1
  store i32 1, ptr %25, align 4
  br label %79

78:                                               ; preds = %74, %66, %52
  call void @termPQExpBuffer(ptr noundef %22)
  store i1 false, ptr %11, align 1
  store i32 1, ptr %25, align 4
  br label %79

79:                                               ; preds = %78, %77
  call void @llvm.lifetime.end.p0(i64 1, ptr %24) #8
  call void @llvm.lifetime.end.p0(i64 4, ptr %23) #8
  call void @llvm.lifetime.end.p0(i64 24, ptr %22) #8
  %80 = load i1, ptr %11, align 1
  ret i1 %80
}