; Function Attrs: nounwind uwtable
define internal fastcc noundef zeroext i1 @validateSQLNamePattern(ptr noundef nonnull %0, ptr noundef %1, i1 noundef zeroext %2, i1 noundef zeroext %3, ptr noundef %4, ptr noundef %5, ptr noundef %6, ptr noundef %7, ptr noundef writeonly captures(address_is_null) %8, i32 noundef range(i32 1, 4) %9) unnamed_addr #0 {
  %11 = alloca %struct.PQExpBufferData, align 8
  %12 = alloca i32, align 4
  call void @llvm.lifetime.start.p0(i64 24, ptr nonnull %11) #8
  call void @llvm.lifetime.start.p0(i64 4, ptr nonnull %12) #8
  call void @initPQExpBuffer(ptr noundef nonnull %11) #8
  %13 = load ptr, ptr @pset, align 8
  %14 = call zeroext i1 @processSQLNamePattern(ptr noundef %13, ptr noundef nonnull %0, ptr noundef %1, i1 noundef zeroext %2, i1 noundef zeroext %3, ptr noundef %4, ptr noundef %5, ptr noundef %6, ptr noundef %7, ptr noundef nonnull %11, ptr noundef nonnull %12) #8
  %.not = icmp eq ptr %8, null
  br i1 %.not, label %17, label %15

15:                                               ; preds = %10
  %16 = zext i1 %14 to i8
  store i8 %16, ptr %8, align 1
  br label %17

17:                                               ; preds = %15, %10
  %18 = load i32, ptr %12, align 4
  %.not19 = icmp slt i32 %18, %9
  br i1 %.not19, label %20, label %19

19:                                               ; preds = %17
  call void (i32, i32, ptr, ...) @pg_log_generic(i32 noundef 4, i32 noundef 0, ptr noundef nonnull @.str.912, ptr noundef %1) #8
  br label %35

20:                                               ; preds = %17
  %21 = icmp samesign ugt i32 %9, 1
  %22 = add nsw i32 %9, -1
  %23 = icmp eq i32 %18, %22
  %or.cond = select i1 %21, i1 %23, i1 false
  br i1 %or.cond, label %24, label %35

24:                                               ; preds = %20
  %25 = load ptr, ptr @pset, align 8
  %26 = call ptr @PQdb(ptr noundef %25) #8
  %27 = icmp eq ptr %26, null
  br i1 %27, label %28, label %29

28:                                               ; preds = %24
  call void (i32, i32, ptr, ...) @pg_log_generic(i32 noundef 4, i32 noundef 0, ptr noundef nonnull @.str.913) #8
  br label %35

29:                                               ; preds = %24
  %30 = load ptr, ptr @pset, align 8
  %31 = call ptr @PQdb(ptr noundef %30) #8
  %32 = load ptr, ptr %11, align 8
  %33 = call i32 @strcmp(ptr noundef nonnull dereferenceable(1) %31, ptr noundef nonnull dereferenceable(1) %32) #9
  %.not20 = icmp eq i32 %33, 0
  br i1 %.not20, label %35, label %34

34:                                               ; preds = %29
  call void (i32, i32, ptr, ...) @pg_log_generic(i32 noundef 4, i32 noundef 0, ptr noundef nonnull @.str.914, ptr noundef %1) #8
  br label %35

35:                                               ; preds = %19, %28, %34, %20, %29
  %.0 = phi i1 [ true, %29 ], [ true, %20 ], [ false, %34 ], [ false, %28 ], [ false, %19 ]
  call void @termPQExpBuffer(ptr noundef nonnull %11) #8
  call void @llvm.lifetime.end.p0(i64 4, ptr nonnull %12) #8
  call void @llvm.lifetime.end.p0(i64 24, ptr nonnull %11) #8
  ret i1 %.0
}